target datalayout = "e-m:e-p270:32:32-p271:32:32-p272:64:64-i64:64-i128:128-f80:128-n8:16:32:64-S128"
target triple = "x86_64-pc-linux-gnu"

@.str.3 = private unnamed_addr constant [4 x i8] c"SA0\00", align 1
@.str.4 = private unnamed_addr constant [4 x i8] c"SA1\00", align 1
@.str.5 = private unnamed_addr constant [4 x i8] c"NEG\00", align 1
@.str.10 = private unnamed_addr constant [9 x i8] c"RDOB_AND\00", align 1
@.str.11 = private unnamed_addr constant [10 x i8] c"RDOB_NAND\00", align 1
@.str.12 = private unnamed_addr constant [8 x i8] c"RDOB_OR\00", align 1
@.str.13 = private unnamed_addr constant [9 x i8] c"RDOB_NOR\00", align 1
@.str.14 = private unnamed_addr constant [9 x i8] c"RDOB_XOR\00", align 1
@.str.15 = private unnamed_addr constant [10 x i8] c"RDOB_NXOR\00", align 1
@.str.16 = private unnamed_addr constant [9 x i8] c"RDOB_NOT\00", align 1
@.str.17 = private unnamed_addr constant [10 x i8] c"RDOB_BUFF\00", align 1
@.str.18 = private unnamed_addr constant [8 x i8] c"Unknown\00", align 1

; Function Attrs: nounwind uwtable
define ptr @Io_WriteFinType(i32 noundef %0) #0 {
  %2 = alloca ptr, align 8
  %3 = alloca i32, align 4
  store i32 %0, ptr %3, align 4, !tbaa !10
  %4 = load i32, ptr %3, align 4, !tbaa !10
  %5 = icmp eq i32 %4, -99
  br i1 %5, label %6, label %7

6:                                                ; preds = %1
  store ptr @.str.3, ptr %2, align 8
  br label %48

7:                                                ; preds = %1
  %8 = load i32, ptr %3, align 4, !tbaa !10
  %9 = icmp eq i32 %8, -98
  br i1 %9, label %10, label %11

10:                                               ; preds = %7
  store ptr @.str.4, ptr %2, align 8
  br label %48

11:                                               ; preds = %7
  %12 = load i32, ptr %3, align 4, !tbaa !10
  %13 = icmp eq i32 %12, -97
  br i1 %13, label %14, label %15

14:                                               ; preds = %11
  store ptr @.str.5, ptr %2, align 8
  br label %48

15:                                               ; preds = %11
  %16 = load i32, ptr %3, align 4, !tbaa !10
  %17 = icmp eq i32 %16, -96
  br i1 %17, label %18, label %19

18:                                               ; preds = %15
  store ptr @.str.10, ptr %2, align 8
  br label %48

19:                                               ; preds = %15
  %20 = load i32, ptr %3, align 4, !tbaa !10
  %21 = icmp eq i32 %20, -95
  br i1 %21, label %22, label %23

22:                                               ; preds = %19
  store ptr @.str.11, ptr %2, align 8
  br label %48

23:                                               ; preds = %19
  %24 = load i32, ptr %3, align 4, !tbaa !10
  %25 = icmp eq i32 %24, -94
  br i1 %25, label %26, label %27

26:                                               ; preds = %23
  store ptr @.str.12, ptr %2, align 8
  br label %48

27:                                               ; preds = %23
  %28 = load i32, ptr %3, align 4, !tbaa !10
  %29 = icmp eq i32 %28, -93
  br i1 %29, label %30, label %31

30:                                               ; preds = %27
  store ptr @.str.13, ptr %2, align 8
  br label %48

31:                                               ; preds = %27
  %32 = load i32, ptr %3, align 4, !tbaa !10
  %33 = icmp eq i32 %32, -92
  br i1 %33, label %34, label %35

34:                                               ; preds = %31
  store ptr @.str.14, ptr %2, align 8
  br label %48

35:                                               ; preds = %31
  %36 = load i32, ptr %3, align 4, !tbaa !10
  %37 = icmp eq i32 %36, -91
  br i1 %37, label %38, label %39

38:                                               ; preds = %35
  store ptr @.str.15, ptr %2, align 8
  br label %48

39:                                               ; preds = %35
  %40 = load i32, ptr %3, align 4, !tbaa !10
  %41 = icmp eq i32 %40, -90
  br i1 %41, label %42, label %43

42:                                               ; preds = %39
  store ptr @.str.16, ptr %2, align 8
  br label %48

43:                                               ; preds = %39
  %44 = load i32, ptr %3, align 4, !tbaa !10
  %45 = icmp eq i32 %44, -89
  br i1 %45, label %46, label %47

46:                                               ; preds = %43
  store ptr @.str.17, ptr %2, align 8
  br label %48

47:                                               ; preds = %43
  store ptr @.str.18, ptr %2, align 8
  br label %48

48:                                               ; preds = %47, %46, %42, %38, %34, %30, %26, %22, %18, %14, %10, %6
  %49 = load ptr, ptr %2, align 8
  ret ptr %49
}